target datalayout = "e-m:e-p270:32:32-p271:32:32-p272:64:64-i64:64-i128:128-f80:128-n8:16:32:64-S128"
target triple = "x86_64-pc-linux-gnu"

%struct.Type_ = type { i32, ptr, ptr, ptr, %union.anon.85, ptr, ptr, %union.anon.87 }
%union.anon.85 = type { ptr }
%union.anon.87 = type { %struct.TypeFunction }
%struct.TypeFunction = type { ptr, ptr, ptr }
%struct.Decl_ = type { ptr, ptr, %union.SourceSpan, i64, %union.anon.5, i32, %union.anon.6, i64, ptr, ptr, ptr, %union.anon.7 }
%union.SourceSpan = type { i64 }
%union.anon.5 = type { ptr }
%union.anon.6 = type { i16 }
%union.anon.7 = type { %struct.FuncDecl }
%struct.FuncDecl = type { i32, [4 x i8], %struct.Signature_, i32, i32, %union.anon.14 }
%struct.Signature_ = type <{ %struct.CalleeAttributes, i16, i8, i32, i32, [4 x i8], ptr }>
%struct.CalleeAttributes = type { i8 }
%union.anon.14 = type { %struct.anon.15 }
%struct.anon.15 = type { i16, %union.anon.16 }
%union.anon.16 = type { ptr }
%struct.anon.8 = type { ptr, ptr, %union.anon.9 }
%union.anon.9 = type { %struct.BitStructDecl }
%struct.BitStructDecl = type { ptr, ptr, i8 }
%struct.TypeArray = type { ptr, i32 }
%struct.StructDecl = type { i32, ptr, i32, i16 }
%struct.VHeader_ = type { i32, i32, [0 x i8] }

; Function Attrs: nounwind uwtable
define internal ptr @x64_get_member_at_offset(ptr noundef %0, i32 noundef %1) #0 {
  %3 = alloca i32, align 4
  %4 = alloca ptr, align 8
  %5 = alloca ptr, align 8
  %6 = alloca ptr, align 8
  %7 = alloca ptr, align 8
  %8 = alloca i32, align 4
  %9 = alloca ptr, align 8
  %10 = alloca ptr, align 8
  %11 = alloca i32, align 4
  %12 = alloca i32, align 4
  store ptr %0, ptr %7, align 8
  store i32 %1, ptr %8, align 4
  %13 = load ptr, ptr %7, align 8
  %14 = getelementptr inbounds %struct.Decl_, ptr %13, i32 0, i32 10
  %15 = load ptr, ptr %14, align 8
  %16 = call i32 @type_size(ptr noundef %15)
  %17 = load i32, ptr %8, align 4
  %18 = icmp ule i32 %16, %17
  br i1 %18, label %19, label %20

19:                                               ; preds = %2
  store ptr null, ptr %6, align 8
  br label %65

20:                                               ; preds = %2
  %21 = load ptr, ptr %7, align 8
  %22 = getelementptr inbounds %struct.Decl_, ptr %21, i32 0, i32 11
  %23 = getelementptr inbounds %struct.anon.8, ptr %22, i32 0, i32 2
  %24 = getelementptr inbounds %struct.StructDecl, ptr %23, i32 0, i32 1
  %25 = load ptr, ptr %24, align 8
  store ptr %25, ptr %9, align 8
  store ptr null, ptr %10, align 8
  store i32 0, ptr %11, align 4
  %26 = load ptr, ptr %9, align 8
  store ptr %26, ptr %4, align 8
  %27 = load ptr, ptr %4, align 8
  %28 = icmp ne ptr %27, null
  br i1 %28, label %30, label %29

29:                                               ; preds = %20
  store i32 0, ptr %3, align 4
  br label %35

30:                                               ; preds = %20
  %31 = load ptr, ptr %4, align 8
  store ptr %31, ptr %5, align 8
  %32 = load ptr, ptr %5, align 8
  %33 = getelementptr inbounds %struct.VHeader_, ptr %32, i64 -1
  %34 = load i32, ptr %33, align 4
  store i32 %34, ptr %3, align 4
  br label %35

35:                                               ; preds = %30, %29
  %36 = load i32, ptr %3, align 4
  store i32 %36, ptr %12, align 4
  br label %37

37:                                               ; preds = %60, %35
  %38 = load i32, ptr %11, align 4
  %39 = load i32, ptr %12, align 4
  %40 = icmp ult i32 %38, %39
  br i1 %40, label %41, label %63

41:                                               ; preds = %37
  %42 = load ptr, ptr %9, align 8
  %43 = load i32, ptr %11, align 4
  %44 = zext i32 %43 to i64
  %45 = getelementptr inbounds ptr, ptr %42, i64 %44
  %46 = load ptr, ptr %45, align 8
  %47 = getelementptr inbounds %struct.Decl_, ptr %46, i32 0, i32 7
  %48 = load i64, ptr %47, align 8
  %49 = and i64 %48, 4294967295
  %50 = trunc i64 %49 to i32
  %51 = load i32, ptr %8, align 4
  %52 = icmp ugt i32 %50, %51
  br i1 %52, label %53, label %54

53:                                               ; preds = %41
  br label %63

54:                                               ; preds = %41
  %55 = load ptr, ptr %9, align 8
  %56 = load i32, ptr %11, align 4
  %57 = zext i32 %56 to i64
  %58 = getelementptr inbounds ptr, ptr %55, i64 %57
  %59 = load ptr, ptr %58, align 8
  store ptr %59, ptr %10, align 8
  br label %60

60:                                               ; preds = %54
  %61 = load i32, ptr %11, align 4
  %62 = add i32 %61, 1
  store i32 %62, ptr %11, align 4
  br label %37, !llvm.loop !13

63:                                               ; preds = %53, %37
  %64 = load ptr, ptr %10, align 8
  store ptr %64, ptr %6, align 8
  br label %65

65:                                               ; preds = %63, %19
  %66 = load ptr, ptr %6, align 8
  ret ptr %66
}

; Function Attrs: nounwind uwtable
define dso_local zeroext i1 @x64_contains_float_at_offset(ptr noundef %0, i32 noundef %1) #0 {
  %3 = alloca i1, align 1
  %4 = alloca ptr, align 8
  %5 = alloca i32, align 4
  %6 = alloca ptr, align 8
  %7 = alloca ptr, align 8
  %8 = alloca i32, align 4
  store ptr %0, ptr %4, align 8
  store i32 %1, ptr %5, align 4
  %9 = load i32, ptr %5, align 4
  %10 = icmp eq i32 %9, 0
  br i1 %10, label %11, label %17

11:                                               ; preds = %2
  %12 = load ptr, ptr %4, align 8
  %13 = getelementptr inbounds %struct.Type_, ptr %12, i32 0, i32 0
  %14 = load i32, ptr %13, align 8
  %15 = icmp eq i32 %14, 15
  br i1 %15, label %16, label %17

16:                                               ; preds = %11
  store i1 true, ptr %3, align 1
  br label %63

17:                                               ; preds = %11, %2
  %18 = load ptr, ptr %4, align 8
  %19 = getelementptr inbounds %struct.Type_, ptr %18, i32 0, i32 0
  %20 = load i32, ptr %19, align 8
  %21 = icmp eq i32 %20, 26
  br i1 %21, label %22, label %40

22:                                               ; preds = %17
  %23 = load ptr, ptr %4, align 8
  %24 = getelementptr inbounds %struct.Type_, ptr %23, i32 0, i32 7
  %25 = load ptr, ptr %24, align 8
  %26 = load i32, ptr %5, align 4
  %27 = call ptr @x64_get_member_at_offset(ptr noundef %25, i32 noundef %26)
  store ptr %27, ptr %6, align 8
  %28 = load ptr, ptr %6, align 8
  %29 = getelementptr inbounds %struct.Decl_, ptr %28, i32 0, i32 7
  %30 = load i64, ptr %29, align 8
  %31 = and i64 %30, 4294967295
  %32 = trunc i64 %31 to i32
  %33 = load i32, ptr %5, align 4
  %34 = sub i32 %33, %32
  store i32 %34, ptr %5, align 4
  %35 = load ptr, ptr %6, align 8
  %36 = getelementptr inbounds %struct.Decl_, ptr %35, i32 0, i32 10
  %37 = load ptr, ptr %36, align 8
  %38 = load i32, ptr %5, align 4
  %39 = call zeroext i1 @x64_contains_float_at_offset(ptr noundef %37, i32 noundef %38)
  store i1 %39, ptr %3, align 1
  br label %63

40:                                               ; preds = %17
  %41 = load ptr, ptr %4, align 8
  %42 = getelementptr inbounds %struct.Type_, ptr %41, i32 0, i32 0
  %43 = load i32, ptr %42, align 8
  %44 = icmp eq i32 %43, 33
  br i1 %44, label %45, label %62

45:                                               ; preds = %40
  %46 = load ptr, ptr %4, align 8
  %47 = getelementptr inbounds %struct.Type_, ptr %46, i32 0, i32 7
  %48 = getelementptr inbounds %struct.TypeArray, ptr %47, i32 0, i32 0
  %49 = load ptr, ptr %48, align 8
  store ptr %49, ptr %7, align 8
  %50 = load ptr, ptr %7, align 8
  %51 = call i32 @type_size(ptr noundef %50)
  store i32 %51, ptr %8, align 4
  %52 = load i32, ptr %5, align 4
  %53 = load i32, ptr %8, align 4
  %54 = udiv i32 %52, %53
  %55 = load i32, ptr %8, align 4
  %56 = mul i32 %54, %55
  %57 = load i32, ptr %5, align 4
  %58 = sub i32 %57, %56
  store i32 %58, ptr %5, align 4
  %59 = load ptr, ptr %7, align 8
  %60 = load i32, ptr %5, align 4
  %61 = call zeroext i1 @x64_contains_float_at_offset(ptr noundef %59, i32 noundef %60)
  store i1 %61, ptr %3, align 1
  br label %63

62:                                               ; preds = %40
  store i1 false, ptr %3, align 1
  br label %63

63:                                               ; preds = %62, %45, %22, %16
  %64 = load i1, ptr %3, align 1
  ret i1 %64
}