; Function Attrs: nounwind uwtable
define dso_local noundef zeroext i1 @x64_contains_float_at_offset(ptr nocapture noundef readonly %0, i32 noundef %1) local_unnamed_addr #1 {
  %3 = icmp eq i32 %1, 0
  %4 = load i32, ptr %0, align 8
  %5 = icmp eq i32 %4, 15
  %or.cond25 = select i1 %3, i1 %5, i1 false
  br i1 %or.cond25, label %tailrecurse._crit_edge, label %thread-pre-split

thread-pre-split:                                 ; preds = %2, %tailrecurse.backedge
  %or.cond28 = phi i1 [ %or.cond, %tailrecurse.backedge ], [ %or.cond25, %2 ]
  %6 = phi i32 [ %35, %tailrecurse.backedge ], [ %4, %2 ]
  %.tr1927 = phi i32 [ %.tr19.be, %tailrecurse.backedge ], [ %1, %2 ]
  %.tr26 = phi ptr [ %.tr.be, %tailrecurse.backedge ], [ %0, %2 ]
  switch i32 %6, label %tailrecurse._crit_edge [
    i32 26, label %.lr.ph.preheader.i
    i32 33, label %37
  ]

.lr.ph.preheader.i:                               ; preds = %thread-pre-split
  %7 = getelementptr inbounds i8, ptr %.tr26, i64 56
  %8 = load ptr, ptr %7, align 8
  %9 = getelementptr inbounds i8, ptr %8, i64 72
  %10 = load ptr, ptr %9, align 8
  %11 = tail call i32 @type_size(ptr noundef %10) #7
  %.not.i = icmp ugt i32 %11, %.tr1927
  tail call void @llvm.assume(i1 %.not.i)
  %12 = getelementptr inbounds i8, ptr %8, i64 104
  %13 = load ptr, ptr %12, align 8, !nonnull !13, !noundef !13
  %14 = getelementptr inbounds i8, ptr %13, i64 -8
  %15 = load i32, ptr %14, align 4
  %.not27.i = icmp ne i32 %15, 0
  tail call void @llvm.assume(i1 %.not27.i)
  %wide.trip.count.i = zext i32 %15 to i64
  %16 = load ptr, ptr %13, align 8
  %17 = getelementptr inbounds i8, ptr %16, i64 48
  %18 = load i64, ptr %17, align 8
  %19 = trunc i64 %18 to i32
  %20 = icmp uge i32 %.tr1927, %19
  tail call void @llvm.assume(i1 %20)
  %exitcond.not.i22 = icmp eq i32 %15, 1
  br i1 %exitcond.not.i22, label %x64_get_member_at_offset.exit, label %.lr.ph.i, !llvm.loop !14

.lr.ph:                                           ; preds = %.lr.ph.i
  %indvars.iv.next.i = add nuw nsw i64 %indvars.iv.next.i23, 1
  %exitcond.not.i = icmp eq i64 %indvars.iv.next.i, %wide.trip.count.i
  br i1 %exitcond.not.i, label %x64_get_member_at_offset.exit, label %.lr.ph.i, !llvm.loop !14

.lr.ph.i:                                         ; preds = %.lr.ph.preheader.i, %.lr.ph
  %indvars.iv.next.i23 = phi i64 [ %indvars.iv.next.i, %.lr.ph ], [ 1, %.lr.ph.preheader.i ]
  %21 = phi ptr [ %23, %.lr.ph ], [ %16, %.lr.ph.preheader.i ]
  %22 = getelementptr inbounds ptr, ptr %13, i64 %indvars.iv.next.i23
  %23 = load ptr, ptr %22, align 8
  %24 = getelementptr inbounds i8, ptr %23, i64 48
  %25 = load i64, ptr %24, align 8
  %26 = trunc i64 %25 to i32
  %27 = icmp ult i32 %.tr1927, %26
  br i1 %27, label %x64_get_member_at_offset.exit, label %.lr.ph, !llvm.loop !14

x64_get_member_at_offset.exit:                    ; preds = %.lr.ph, %.lr.ph.i, %.lr.ph.preheader.i
  %.lcssa = phi ptr [ %16, %.lr.ph.preheader.i ], [ %23, %.lr.ph ], [ %21, %.lr.ph.i ]
  %28 = getelementptr inbounds i8, ptr %.lcssa, i64 48
  %29 = load i64, ptr %28, align 8
  %30 = trunc i64 %29 to i32
  %31 = sub i32 %.tr1927, %30
  %32 = getelementptr inbounds i8, ptr %.lcssa, i64 72
  %33 = load ptr, ptr %32, align 8
  br label %tailrecurse.backedge

tailrecurse.backedge:                             ; preds = %x64_get_member_at_offset.exit, %37
  %.tr.be = phi ptr [ %33, %x64_get_member_at_offset.exit ], [ %39, %37 ]
  %.tr19.be = phi i32 [ %31, %x64_get_member_at_offset.exit ], [ %41, %37 ]
  %34 = icmp eq i32 %.tr19.be, 0
  %35 = load i32, ptr %.tr.be, align 8
  %36 = icmp eq i32 %35, 15
  %or.cond = select i1 %34, i1 %36, i1 false
  br i1 %or.cond, label %tailrecurse._crit_edge, label %thread-pre-split

37:                                               ; preds = %thread-pre-split
  %38 = getelementptr inbounds i8, ptr %.tr26, i64 56
  %39 = load ptr, ptr %38, align 8
  %40 = tail call i32 @type_size(ptr noundef %39) #7
  %41 = urem i32 %.tr1927, %40
  br label %tailrecurse.backedge

tailrecurse._crit_edge:                           ; preds = %thread-pre-split, %tailrecurse.backedge, %2
  %or.cond.lcssa = phi i1 [ %or.cond25, %2 ], [ %or.cond28, %thread-pre-split ], [ %or.cond, %tailrecurse.backedge ]
  ret i1 %or.cond.lcssa
}